; Function Attrs: mustprogress nounwind uwtable
define dso_local void @_ZN4llvm16DeleteDeadBlocksENS_8ArrayRefIPNS_10BasicBlockEEEPNS_14DomTreeUpdaterEb(ptr %0, i64 %1, ptr noundef %2, i1 noundef zeroext %3) local_unnamed_addr #0 {
  %5 = alloca %"class.llvm::SmallVector.13", align 8
  %6 = getelementptr inbounds i8, ptr %5, i64 16
  call void @_ZN4llvm15SmallVectorBaseIjEC2EPvm(ptr noundef nonnull align 8 dereferenceable(16) %5, ptr noundef nonnull %6, i64 noundef 4) #21
  %.not = icmp eq ptr %2, null
  %. = select i1 %.not, ptr null, ptr %5
  call void @_ZN4llvm16detachDeadBlocksENS_8ArrayRefIPNS_10BasicBlockEEEPNS_15SmallVectorImplINS_3cfg6UpdateIS2_EEEEb(ptr %0, i64 %1, ptr noundef %., i1 noundef zeroext %3)
  br i1 %.not, label %7, label %.thread

7:                                                ; preds = %4
  %8 = getelementptr inbounds ptr, ptr %0, i64 %1
  %.not1519 = icmp eq i64 %1, 0
  br i1 %.not1519, label %._crit_edge, label %.lr.ph.split.us

.thread:                                          ; preds = %4
  %9 = load ptr, ptr %5, align 8
  %10 = call noundef i64 @_ZNK4llvm15SmallVectorBaseIjE4sizeEv(ptr noundef nonnull align 8 dereferenceable(16) %5) #21
  call void @_ZN4llvm21GenericDomTreeUpdaterINS_14DomTreeUpdaterENS_13DominatorTreeENS_17PostDominatorTreeEE12applyUpdatesENS_8ArrayRefINS_3cfg6UpdateIPNS_10BasicBlockEEEEE(ptr noundef nonnull align 8 dereferenceable(410) %2, ptr %9, i64 %10) #21
  %11 = getelementptr inbounds ptr, ptr %0, i64 %1
  %.not151922 = icmp eq i64 %1, 0
  br i1 %.not151922, label %._crit_edge, label %.lr.ph.split

.lr.ph.split.us:                                  ; preds = %7, %.lr.ph.split.us
  %.020.us = phi ptr [ %14, %.lr.ph.split.us ], [ %0, %7 ]
  %12 = load ptr, ptr %.020.us, align 8
  %13 = call ptr @_ZN4llvm10BasicBlock15eraseFromParentEv(ptr noundef nonnull align 8 dereferenceable(80) %12) #21
  %14 = getelementptr inbounds i8, ptr %.020.us, i64 8
  %.not15.us = icmp eq ptr %14, %8
  br i1 %.not15.us, label %._crit_edge, label %.lr.ph.split.us

.lr.ph.split:                                     ; preds = %.thread, %.lr.ph.split
  %.020 = phi ptr [ %16, %.lr.ph.split ], [ %0, %.thread ]
  %15 = load ptr, ptr %.020, align 8
  call void @_ZN4llvm14DomTreeUpdater8deleteBBEPNS_10BasicBlockE(ptr noundef nonnull align 8 dereferenceable(440) %2, ptr noundef %15) #21
  %16 = getelementptr inbounds i8, ptr %.020, i64 8
  %.not15 = icmp eq ptr %16, %11
  br i1 %.not15, label %._crit_edge, label %.lr.ph.split

._crit_edge:                                      ; preds = %.lr.ph.split, %.lr.ph.split.us, %.thread, %7
  %17 = call noundef i64 @_ZNK4llvm15SmallVectorBaseIjE4sizeEv(ptr noundef nonnull align 8 dereferenceable(16) %5) #21
  %18 = load ptr, ptr %5, align 8
  %19 = icmp eq ptr %18, %6
  br i1 %19, label %_ZN4llvm11SmallVectorINS_3cfg6UpdateIPNS_10BasicBlockEEELj4EED2Ev.exit, label %20

20:                                               ; preds = %._crit_edge
  call void @free(ptr noundef %18) #21
  br label %_ZN4llvm11SmallVectorINS_3cfg6UpdateIPNS_10BasicBlockEEELj4EED2Ev.exit

_ZN4llvm11SmallVectorINS_3cfg6UpdateIPNS_10BasicBlockEEELj4EED2Ev.exit: ; preds = %._crit_edge, %20
  ret void
}